target datalayout = "e-m:e-p270:32:32-p271:32:32-p272:64:64-i64:64-i128:128-f80:128-n8:16:32:64-S128"
target triple = "x86_64-pc-linux-gnu"

%struct.SDL_VideoDevice = type { ptr, ptr, ptr, ptr, ptr, ptr, ptr, ptr, ptr, ptr, ptr, ptr, ptr, ptr, ptr, ptr, ptr, ptr, ptr, ptr, ptr, ptr, ptr, ptr, ptr, ptr, ptr, ptr, ptr, ptr, ptr, ptr, ptr, ptr, ptr, ptr, ptr, ptr, ptr, ptr, ptr, ptr, ptr, ptr, ptr, ptr, ptr, ptr, ptr, ptr, ptr, ptr, ptr, ptr, ptr, ptr, ptr, ptr, ptr, ptr, ptr, ptr, ptr, ptr, ptr, ptr, ptr, ptr, ptr, ptr, ptr, ptr, ptr, ptr, ptr, ptr, ptr, ptr, ptr, ptr, ptr, ptr, ptr, ptr, ptr, ptr, ptr, ptr, ptr, ptr, ptr, ptr, ptr, ptr, ptr, ptr, ptr, i64, i8, i8, i8, ptr, i32, ptr, %struct.SDL_Rect, ptr, ptr, i32, ptr, ptr, ptr, ptr, i64, ptr, i8, i32, i32, %struct.anon, ptr, ptr, ptr, ptr, ptr, ptr, %struct.SDL_AtomicInt, %struct.SDL_AtomicInt, i8, %struct.anon.0, ptr, ptr, ptr, ptr, ptr }
%struct.SDL_Rect = type { i32, i32, i32, i32 }
%struct.anon = type { i32, i32, i32, i32, i32, i32, i32, i32, i32, i32, i32, i32, i32, i32, i32, i32, i32, i32, i32, i32, i32, i32, i32, i32, i32, i32, i32, i32, i32, [256 x i8], ptr }
%struct.SDL_AtomicInt = type { i32 }
%struct.anon.0 = type { ptr, ptr, i32, [256 x i8], ptr }
%struct.SDL_VideoData = type { ptr, ptr, i32, ptr, i64, i32, ptr, i32, i64, i64, %struct.X11_ClipboardData, %struct.X11_ClipboardData, ptr, i64, %struct.X11_SettingsData, i8, %struct.anon.1, [256 x i32], i8, i8, i8, i64, i8, %struct.SDL_Point, i32, ptr, i32, i8, i32, %struct.anon.2, i8, i64, ptr, ptr, i8, i8, i8 }
%struct.X11_ClipboardData = type { ptr, ptr, ptr, i64, i32 }
%struct.X11_SettingsData = type { ptr }
%struct.anon.1 = type { i64, i64, i64, i64, i64, i64, i64, i64, i64, i64, i64, i64, i64, i64, i64, i64, i64, i64, i64, i64, i64, i64, i64, i64, i64, i64, i64, i64, i64, i64, i64, i64, i64, i64, i64, i64, i64, i64, i64, i64, i64, i64, i64, i64, i64, i64, i64, i64, i64, i64, i64, i64, i64 }
%struct.SDL_Point = type { i32, i32 }
%struct.anon.2 = type { ptr, i32, i32, i32, i16, i32, i32 }

@X11_XChangeProperty = external global ptr, align 8
@X11_XDeleteProperty = external global ptr, align 8

; Function Attrs: nounwind uwtable
define hidden void @X11_SetNetWMState(ptr noundef %0, i64 noundef %1, i64 noundef %2) #0 {
  %4 = alloca ptr, align 8
  %5 = alloca i64, align 8
  %6 = alloca i64, align 8
  %7 = alloca ptr, align 8
  %8 = alloca ptr, align 8
  %9 = alloca i64, align 8
  %10 = alloca i64, align 8
  %11 = alloca i64, align 8
  %12 = alloca i64, align 8
  %13 = alloca i64, align 8
  %14 = alloca i64, align 8
  %15 = alloca i64, align 8
  %16 = alloca i64, align 8
  %17 = alloca i64, align 8
  %18 = alloca [16 x i64], align 16
  %19 = alloca i32, align 4
  store ptr %0, ptr %4, align 8
  store i64 %1, ptr %5, align 8
  store i64 %2, ptr %6, align 8
  call void @llvm.lifetime.start.p0(i64 8, ptr %7) #7
  %20 = load ptr, ptr %4, align 8
  %21 = getelementptr inbounds nuw %struct.SDL_VideoDevice, ptr %20, i32 0, i32 128
  %22 = load ptr, ptr %21, align 8
  store ptr %22, ptr %7, align 8
  call void @llvm.lifetime.start.p0(i64 8, ptr %8) #7
  %23 = load ptr, ptr %7, align 8
  %24 = getelementptr inbounds nuw %struct.SDL_VideoData, ptr %23, i32 0, i32 0
  %25 = load ptr, ptr %24, align 8
  store ptr %25, ptr %8, align 8
  call void @llvm.lifetime.start.p0(i64 8, ptr %9) #7
  %26 = load ptr, ptr %7, align 8
  %27 = getelementptr inbounds nuw %struct.SDL_VideoData, ptr %26, i32 0, i32 16
  %28 = getelementptr inbounds nuw %struct.anon.1, ptr %27, i32 0, i32 5
  %29 = load i64, ptr %28, align 8
  store i64 %29, ptr %9, align 8
  call void @llvm.lifetime.start.p0(i64 8, ptr %10) #7
  %30 = load ptr, ptr %7, align 8
  %31 = getelementptr inbounds nuw %struct.SDL_VideoData, ptr %30, i32 0, i32 16
  %32 = getelementptr inbounds nuw %struct.anon.1, ptr %31, i32 0, i32 7
  %33 = load i64, ptr %32, align 8
  store i64 %33, ptr %10, align 8
  call void @llvm.lifetime.start.p0(i64 8, ptr %11) #7
  %34 = load ptr, ptr %7, align 8
  %35 = getelementptr inbounds nuw %struct.SDL_VideoData, ptr %34, i32 0, i32 16
  %36 = getelementptr inbounds nuw %struct.anon.1, ptr %35, i32 0, i32 8
  %37 = load i64, ptr %36, align 8
  store i64 %37, ptr %11, align 8
  call void @llvm.lifetime.start.p0(i64 8, ptr %12) #7
  %38 = load ptr, ptr %7, align 8
  %39 = getelementptr inbounds nuw %struct.SDL_VideoData, ptr %38, i32 0, i32 16
  %40 = getelementptr inbounds nuw %struct.anon.1, ptr %39, i32 0, i32 9
  %41 = load i64, ptr %40, align 8
  store i64 %41, ptr %12, align 8
  call void @llvm.lifetime.start.p0(i64 8, ptr %13) #7
  %42 = load ptr, ptr %7, align 8
  %43 = getelementptr inbounds nuw %struct.SDL_VideoData, ptr %42, i32 0, i32 16
  %44 = getelementptr inbounds nuw %struct.anon.1, ptr %43, i32 0, i32 10
  %45 = load i64, ptr %44, align 8
  store i64 %45, ptr %13, align 8
  call void @llvm.lifetime.start.p0(i64 8, ptr %14) #7
  %46 = load ptr, ptr %7, align 8
  %47 = getelementptr inbounds nuw %struct.SDL_VideoData, ptr %46, i32 0, i32 16
  %48 = getelementptr inbounds nuw %struct.anon.1, ptr %47, i32 0, i32 11
  %49 = load i64, ptr %48, align 8
  store i64 %49, ptr %14, align 8
  call void @llvm.lifetime.start.p0(i64 8, ptr %15) #7
  %50 = load ptr, ptr %7, align 8
  %51 = getelementptr inbounds nuw %struct.SDL_VideoData, ptr %50, i32 0, i32 16
  %52 = getelementptr inbounds nuw %struct.anon.1, ptr %51, i32 0, i32 12
  %53 = load i64, ptr %52, align 8
  store i64 %53, ptr %15, align 8
  call void @llvm.lifetime.start.p0(i64 8, ptr %16) #7
  %54 = load ptr, ptr %7, align 8
  %55 = getelementptr inbounds nuw %struct.SDL_VideoData, ptr %54, i32 0, i32 16
  %56 = getelementptr inbounds nuw %struct.anon.1, ptr %55, i32 0, i32 13
  %57 = load i64, ptr %56, align 8
  store i64 %57, ptr %16, align 8
  call void @llvm.lifetime.start.p0(i64 8, ptr %17) #7
  %58 = load ptr, ptr %7, align 8
  %59 = getelementptr inbounds nuw %struct.SDL_VideoData, ptr %58, i32 0, i32 16
  %60 = getelementptr inbounds nuw %struct.anon.1, ptr %59, i32 0, i32 14
  %61 = load i64, ptr %60, align 8
  store i64 %61, ptr %17, align 8
  call void @llvm.lifetime.start.p0(i64 128, ptr %18) #7
  call void @llvm.lifetime.start.p0(i64 4, ptr %19) #7
  store i32 0, ptr %19, align 4
  %62 = load i64, ptr %6, align 8
  %63 = and i64 %62, 65536
  %64 = icmp ne i64 %63, 0
  br i1 %64, label %65, label %71

65:                                               ; preds = %3
  %66 = load i64, ptr %14, align 8
  %67 = load i32, ptr %19, align 4
  %68 = add nsw i32 %67, 1
  store i32 %68, ptr %19, align 4
  %69 = sext i32 %67 to i64
  %70 = getelementptr inbounds [16 x i64], ptr %18, i64 0, i64 %69
  store i64 %66, ptr %70, align 8
  br label %71

71:                                               ; preds = %65, %3
  %72 = load i64, ptr %6, align 8
  %73 = and i64 %72, 131072
  %74 = icmp ne i64 %73, 0
  br i1 %74, label %75, label %86

75:                                               ; preds = %71
  %76 = load i64, ptr %15, align 8
  %77 = load i32, ptr %19, align 4
  %78 = add nsw i32 %77, 1
  store i32 %78, ptr %19, align 4
  %79 = sext i32 %77 to i64
  %80 = getelementptr inbounds [16 x i64], ptr %18, i64 0, i64 %79
  store i64 %76, ptr %80, align 8
  %81 = load i64, ptr %16, align 8
  %82 = load i32, ptr %19, align 4
  %83 = add nsw i32 %82, 1
  store i32 %83, ptr %19, align 4
  %84 = sext i32 %82 to i64
  %85 = getelementptr inbounds [16 x i64], ptr %18, i64 0, i64 %84
  store i64 %81, ptr %85, align 8
  br label %86

86:                                               ; preds = %75, %71
  %87 = load i64, ptr %6, align 8
  %88 = and i64 %87, 512
  %89 = icmp ne i64 %88, 0
  br i1 %89, label %90, label %96

90:                                               ; preds = %86
  %91 = load i64, ptr %10, align 8
  %92 = load i32, ptr %19, align 4
  %93 = add nsw i32 %92, 1
  store i32 %93, ptr %19, align 4
  %94 = sext i32 %92 to i64
  %95 = getelementptr inbounds [16 x i64], ptr %18, i64 0, i64 %94
  store i64 %91, ptr %95, align 8
  br label %96

96:                                               ; preds = %90, %86
  %97 = load i64, ptr %6, align 8
  %98 = and i64 %97, 128
  %99 = icmp ne i64 %98, 0
  br i1 %99, label %100, label %111

100:                                              ; preds = %96
  %101 = load i64, ptr %11, align 8
  %102 = load i32, ptr %19, align 4
  %103 = add nsw i32 %102, 1
  store i32 %103, ptr %19, align 4
  %104 = sext i32 %102 to i64
  %105 = getelementptr inbounds [16 x i64], ptr %18, i64 0, i64 %104
  store i64 %101, ptr %105, align 8
  %106 = load i64, ptr %12, align 8
  %107 = load i32, ptr %19, align 4
  %108 = add nsw i32 %107, 1
  store i32 %108, ptr %19, align 4
  %109 = sext i32 %107 to i64
  %110 = getelementptr inbounds [16 x i64], ptr %18, i64 0, i64 %109
  store i64 %106, ptr %110, align 8
  br label %111

111:                                              ; preds = %100, %96
  %112 = load i64, ptr %6, align 8
  %113 = and i64 %112, 1
  %114 = icmp ne i64 %113, 0
  br i1 %114, label %115, label %121

115:                                              ; preds = %111
  %116 = load i64, ptr %13, align 8
  %117 = load i32, ptr %19, align 4
  %118 = add nsw i32 %117, 1
  store i32 %118, ptr %19, align 4
  %119 = sext i32 %117 to i64
  %120 = getelementptr inbounds [16 x i64], ptr %18, i64 0, i64 %119
  store i64 %116, ptr %120, align 8
  br label %121

121:                                              ; preds = %115, %111
  %122 = load i64, ptr %6, align 8
  %123 = and i64 %122, 4096
  %124 = icmp ne i64 %123, 0
  br i1 %124, label %125, label %131

125:                                              ; preds = %121
  %126 = load i64, ptr %17, align 8
  %127 = load i32, ptr %19, align 4
  %128 = add nsw i32 %127, 1
  store i32 %128, ptr %19, align 4
  %129 = sext i32 %127 to i64
  %130 = getelementptr inbounds [16 x i64], ptr %18, i64 0, i64 %129
  store i64 %126, ptr %130, align 8
  br label %131

131:                                              ; preds = %125, %121
  br label %132

132:                                              ; preds = %131
  br label %133

133:                                              ; preds = %132
  br label %134

134:                                              ; preds = %133
  %135 = load i32, ptr %19, align 4
  %136 = icmp sgt i32 %135, 0
  br i1 %136, label %137, label %145

137:                                              ; preds = %134
  %138 = load ptr, ptr @X11_XChangeProperty, align 8
  %139 = load ptr, ptr %8, align 8
  %140 = load i64, ptr %5, align 8
  %141 = load i64, ptr %9, align 8
  %142 = getelementptr inbounds [16 x i64], ptr %18, i64 0, i64 0
  %143 = load i32, ptr %19, align 4
  %144 = call i32 %138(ptr noundef %139, i64 noundef %140, i64 noundef %141, i64 noundef 4, i32 noundef 32, i32 noundef 0, ptr noundef %142, i32 noundef %143)
  br label %151

145:                                              ; preds = %134
  %146 = load ptr, ptr @X11_XDeleteProperty, align 8
  %147 = load ptr, ptr %8, align 8
  %148 = load i64, ptr %5, align 8
  %149 = load i64, ptr %9, align 8
  %150 = call i32 %146(ptr noundef %147, i64 noundef %148, i64 noundef %149)
  br label %151

151:                                              ; preds = %145, %137
  call void @llvm.lifetime.end.p0(i64 4, ptr %19) #7
  call void @llvm.lifetime.end.p0(i64 128, ptr %18) #7
  call void @llvm.lifetime.end.p0(i64 8, ptr %17) #7
  call void @llvm.lifetime.end.p0(i64 8, ptr %16) #7
  call void @llvm.lifetime.end.p0(i64 8, ptr %15) #7
  call void @llvm.lifetime.end.p0(i64 8, ptr %14) #7
  call void @llvm.lifetime.end.p0(i64 8, ptr %13) #7
  call void @llvm.lifetime.end.p0(i64 8, ptr %12) #7
  call void @llvm.lifetime.end.p0(i64 8, ptr %11) #7
  call void @llvm.lifetime.end.p0(i64 8, ptr %10) #7
  call void @llvm.lifetime.end.p0(i64 8, ptr %9) #7
  call void @llvm.lifetime.end.p0(i64 8, ptr %8) #7
  call void @llvm.lifetime.end.p0(i64 8, ptr %7) #7
  ret void
}