; Function Attrs: nounwind uwtable
define hidden void @X11_SetNetWMState(ptr noundef readonly captures(none) %0, i64 noundef %1, i64 noundef %2) local_unnamed_addr #0 {
  %4 = alloca [16 x i64], align 16
  %5 = getelementptr inbounds nuw i8, ptr %0, i64 1656
  %6 = load ptr, ptr %5, align 8
  %7 = load ptr, ptr %6, align 8
  %8 = getelementptr inbounds nuw i8, ptr %6, i64 232
  %9 = load i64, ptr %8, align 8
  %10 = getelementptr inbounds nuw i8, ptr %6, i64 248
  %11 = load i64, ptr %10, align 8
  %12 = getelementptr inbounds nuw i8, ptr %6, i64 256
  %13 = load i64, ptr %12, align 8
  %14 = getelementptr inbounds nuw i8, ptr %6, i64 264
  %15 = load i64, ptr %14, align 8
  %16 = getelementptr inbounds nuw i8, ptr %6, i64 272
  %17 = load i64, ptr %16, align 8
  %18 = getelementptr inbounds nuw i8, ptr %6, i64 280
  %19 = load i64, ptr %18, align 8
  %20 = getelementptr inbounds nuw i8, ptr %6, i64 288
  %21 = load i64, ptr %20, align 8
  %22 = getelementptr inbounds nuw i8, ptr %6, i64 296
  %23 = load i64, ptr %22, align 8
  %24 = getelementptr inbounds nuw i8, ptr %6, i64 304
  %25 = load i64, ptr %24, align 8
  call void @llvm.lifetime.start.p0(i64 128, ptr nonnull %4) #12
  %26 = and i64 %2, 65536
  %.not = icmp eq i64 %26, 0
  br i1 %.not, label %28, label %27

27:                                               ; preds = %3
  store i64 %19, ptr %4, align 16
  br label %28

28:                                               ; preds = %27, %3
  %.0 = phi i32 [ 1, %27 ], [ 0, %3 ]
  %29 = and i64 %2, 131072
  %.not40 = icmp eq i64 %29, 0
  br i1 %.not40, label %37, label %30

30:                                               ; preds = %28
  %31 = add nuw nsw i32 %.0, 1
  %32 = zext nneg i32 %.0 to i64
  %33 = getelementptr inbounds nuw [16 x i64], ptr %4, i64 0, i64 %32
  store i64 %21, ptr %33, align 8
  %34 = or disjoint i32 %.0, 2
  %35 = zext nneg i32 %31 to i64
  %36 = getelementptr inbounds nuw [16 x i64], ptr %4, i64 0, i64 %35
  store i64 %23, ptr %36, align 8
  br label %37

37:                                               ; preds = %30, %28
  %.1 = phi i32 [ %34, %30 ], [ %.0, %28 ]
  %38 = and i64 %2, 512
  %.not41 = icmp eq i64 %38, 0
  br i1 %.not41, label %43, label %39

39:                                               ; preds = %37
  %40 = add nuw nsw i32 %.1, 1
  %41 = zext nneg i32 %.1 to i64
  %42 = getelementptr inbounds nuw [16 x i64], ptr %4, i64 0, i64 %41
  store i64 %11, ptr %42, align 8
  br label %43

43:                                               ; preds = %39, %37
  %.2 = phi i32 [ %40, %39 ], [ %.1, %37 ]
  %44 = and i64 %2, 128
  %.not42 = icmp eq i64 %44, 0
  br i1 %.not42, label %52, label %45

45:                                               ; preds = %43
  %46 = add nuw nsw i32 %.2, 1
  %47 = zext nneg i32 %.2 to i64
  %48 = getelementptr inbounds nuw [16 x i64], ptr %4, i64 0, i64 %47
  store i64 %13, ptr %48, align 8
  %49 = add nuw nsw i32 %.2, 2
  %50 = zext nneg i32 %46 to i64
  %51 = getelementptr inbounds nuw [16 x i64], ptr %4, i64 0, i64 %50
  store i64 %15, ptr %51, align 8
  br label %52

52:                                               ; preds = %45, %43
  %.3 = phi i32 [ %49, %45 ], [ %.2, %43 ]
  %53 = and i64 %2, 1
  %.not43 = icmp eq i64 %53, 0
  br i1 %.not43, label %58, label %54

54:                                               ; preds = %52
  %55 = add nuw nsw i32 %.3, 1
  %56 = zext nneg i32 %.3 to i64
  %57 = getelementptr inbounds nuw [16 x i64], ptr %4, i64 0, i64 %56
  store i64 %17, ptr %57, align 8
  br label %58

58:                                               ; preds = %54, %52
  %.4 = phi i32 [ %55, %54 ], [ %.3, %52 ]
  %59 = and i64 %2, 4096
  %.not44 = icmp eq i64 %59, 0
  br i1 %.not44, label %63, label %.thread

.thread:                                          ; preds = %58
  %60 = add nuw nsw i32 %.4, 1
  %61 = zext nneg i32 %.4 to i64
  %62 = getelementptr inbounds nuw [16 x i64], ptr %4, i64 0, i64 %61
  store i64 %25, ptr %62, align 8
  br label %64

63:                                               ; preds = %58
  %.not47 = icmp eq i32 %.4, 0
  br i1 %.not47, label %67, label %64

64:                                               ; preds = %.thread, %63
  %.546 = phi i32 [ %60, %.thread ], [ %.4, %63 ]
  %65 = load ptr, ptr @X11_XChangeProperty, align 8
  %66 = call i32 %65(ptr noundef %7, i64 noundef %1, i64 noundef %9, i64 noundef 4, i32 noundef 32, i32 noundef 0, ptr noundef nonnull %4, i32 noundef %.546) #12
  br label %70

67:                                               ; preds = %63
  %68 = load ptr, ptr @X11_XDeleteProperty, align 8
  %69 = tail call i32 %68(ptr noundef %7, i64 noundef %1, i64 noundef %9) #12
  br label %70

70:                                               ; preds = %67, %64
  call void @llvm.lifetime.end.p0(i64 128, ptr nonnull %4) #12
  ret void
}